target datalayout = "e-m:e-p270:32:32-p271:32:32-p272:64:64-i64:64-i128:128-f80:128-n8:16:32:64-S128"
target triple = "x86_64-pc-linux-gnu"

%struct.GenContext_ = type { i8, ptr, ptr, ptr, ptr, ptr, ptr, ptr, ptr, ptr, ptr, ptr, ptr, ptr, ptr, ptr, ptr, ptr, ptr, ptr, ptr, ptr, ptr, ptr, ptr, ptr, ptr, ptr, ptr, ptr, ptr, ptr, ptr, %struct.anon.85, i32, i32, %struct.DebugContext, ptr, ptr, ptr, %struct.BEValue, i8, %union.SourceSpan, ptr, ptr, ptr, ptr }
%struct.anon.85 = type { ptr, ptr, ptr }
%struct.DebugContext = type { i16, ptr, ptr, %struct.DebugFile_, ptr, ptr, ptr, ptr }
%struct.DebugFile_ = type { i16, ptr }
%struct.BEValue = type { i8, i32, ptr, ptr, ptr }
%union.SourceSpan = type { i64 }
%struct.VHeader_ = type { i32, i32, [0 x i8] }

@.str.16 = private unnamed_addr constant [6 x i8] c"panic\00", align 1
@.str.17 = private unnamed_addr constant [8 x i8] c"checkok\00", align 1

; Function Attrs: nounwind uwtable
define internal ptr @vec_new_(i64 noundef %0, i64 noundef %1) #0 {
  %3 = alloca i64, align 8
  %4 = alloca i64, align 8
  %5 = alloca ptr, align 8
  store i64 %0, ptr %3, align 8
  store i64 %1, ptr %4, align 8
  %6 = load i64, ptr %3, align 8
  %7 = load i64, ptr %4, align 8
  %8 = mul i64 %6, %7
  %9 = add i64 %8, 8
  %10 = call ptr @calloc_arena(i64 noundef %9)
  store ptr %10, ptr %5, align 8
  %11 = load i64, ptr %4, align 8
  %12 = trunc i64 %11 to i32
  %13 = load ptr, ptr %5, align 8
  %14 = getelementptr inbounds %struct.VHeader_, ptr %13, i32 0, i32 1
  store i32 %12, ptr %14, align 4
  %15 = load ptr, ptr %5, align 8
  ret ptr %15
}

; Function Attrs: nounwind uwtable
define internal ptr @expand_(ptr noundef %0, i64 noundef %1) #0 {
  %3 = alloca ptr, align 8
  %4 = alloca i64, align 8
  %5 = alloca ptr, align 8
  %6 = alloca ptr, align 8
  %7 = alloca i64, align 8
  store ptr %0, ptr %3, align 8
  store i64 %1, ptr %4, align 8
  %8 = load ptr, ptr %3, align 8
  %9 = icmp ne ptr %8, null
  br i1 %9, label %13, label %10

10:                                               ; preds = %2
  %11 = load i64, ptr %4, align 8
  %12 = call ptr @vec_new_(i64 noundef %11, i64 noundef 8)
  store ptr %12, ptr %5, align 8
  br label %16

13:                                               ; preds = %2
  %14 = load ptr, ptr %3, align 8
  %15 = getelementptr inbounds %struct.VHeader_, ptr %14, i64 -1
  store ptr %15, ptr %5, align 8
  br label %16

16:                                               ; preds = %13, %10
  %17 = load ptr, ptr %5, align 8
  %18 = getelementptr inbounds %struct.VHeader_, ptr %17, i32 0, i32 0
  %19 = load i32, ptr %18, align 4
  %20 = load ptr, ptr %5, align 8
  %21 = getelementptr inbounds %struct.VHeader_, ptr %20, i32 0, i32 1
  %22 = load i32, ptr %21, align 4
  %23 = icmp eq i32 %19, %22
  br i1 %23, label %24, label %49

24:                                               ; preds = %16
  %25 = load i64, ptr %4, align 8
  %26 = load ptr, ptr %5, align 8
  %27 = getelementptr inbounds %struct.VHeader_, ptr %26, i32 0, i32 1
  %28 = load i32, ptr %27, align 4
  %29 = shl i32 %28, 1
  %30 = zext i32 %29 to i64
  %31 = call ptr @vec_new_(i64 noundef %25, i64 noundef %30)
  store ptr %31, ptr %6, align 8
  %32 = load i64, ptr %4, align 8
  %33 = load ptr, ptr %5, align 8
  %34 = getelementptr inbounds %struct.VHeader_, ptr %33, i32 0, i32 1
  %35 = load i32, ptr %34, align 4
  %36 = zext i32 %35 to i64
  %37 = mul i64 %32, %36
  %38 = add i64 %37, 8
  store i64 %38, ptr %7, align 8
  %39 = load ptr, ptr %6, align 8
  %40 = load ptr, ptr %5, align 8
  %41 = load i64, ptr %7, align 8
  call void @llvm.memcpy.p0.p0.i64(ptr align 4 %39, ptr align 4 %40, i64 %41, i1 false)
  %42 = load ptr, ptr %6, align 8
  store ptr %42, ptr %5, align 8
  %43 = load ptr, ptr %5, align 8
  %44 = getelementptr inbounds %struct.VHeader_, ptr %43, i32 0, i32 1
  %45 = load i32, ptr %44, align 4
  %46 = shl i32 %45, 1
  %47 = load ptr, ptr %6, align 8
  %48 = getelementptr inbounds %struct.VHeader_, ptr %47, i32 0, i32 1
  store i32 %46, ptr %48, align 4
  br label %49

49:                                               ; preds = %24, %16
  %50 = load ptr, ptr %5, align 8
  %51 = getelementptr inbounds %struct.VHeader_, ptr %50, i32 0, i32 0
  %52 = load i32, ptr %51, align 4
  %53 = add i32 %52, 1
  store i32 %53, ptr %51, align 4
  %54 = load ptr, ptr %5, align 8
  %55 = getelementptr inbounds %struct.VHeader_, ptr %54, i64 1
  ret ptr %55
}

; Function Attrs: nounwind uwtable
define dso_local void @llvm_emit_panic_if_true(ptr noundef %0, ptr noundef %1, ptr noundef %2, i64 %3, ptr noundef %4, ptr noundef %5, ptr noundef %6) #0 {
  %8 = alloca ptr, align 8
  %9 = alloca i32, align 4
  %10 = alloca ptr, align 8
  %11 = alloca ptr, align 8
  %12 = alloca i32, align 4
  %13 = alloca ptr, align 8
  %14 = alloca ptr, align 8
  %15 = alloca i32, align 4
  %16 = alloca ptr, align 8
  %17 = alloca ptr, align 8
  %18 = alloca %union.SourceSpan, align 8
  %19 = alloca ptr, align 8
  %20 = alloca ptr, align 8
  %21 = alloca ptr, align 8
  %22 = alloca ptr, align 8
  %23 = alloca ptr, align 8
  %24 = alloca ptr, align 8
  %25 = alloca ptr, align 8
  %26 = alloca ptr, align 8
  %27 = alloca ptr, align 8
  %28 = alloca ptr, align 8
  %29 = alloca %struct.BEValue, align 8
  %30 = alloca ptr, align 8
  %31 = alloca ptr, align 8
  %32 = getelementptr inbounds %union.SourceSpan, ptr %18, i32 0, i32 0
  store i64 %3, ptr %32, align 8
  store ptr %0, ptr %19, align 8
  store ptr %1, ptr %20, align 8
  store ptr %2, ptr %21, align 8
  store ptr %4, ptr %22, align 8
  store ptr %5, ptr %23, align 8
  store ptr %6, ptr %24, align 8
  %33 = load ptr, ptr %20, align 8
  %34 = getelementptr inbounds %struct.BEValue, ptr %33, i32 0, i32 3
  %35 = load ptr, ptr %34, align 8
  store ptr %35, ptr %8, align 8
  %36 = load ptr, ptr %8, align 8
  %37 = call i32 @LLVMIsConstant(ptr noundef %36) #7
  %38 = icmp ne i32 %37, 0
  br i1 %38, label %39, label %40

39:                                               ; preds = %7
  br label %162

40:                                               ; preds = %7
  %41 = load ptr, ptr %19, align 8
  %42 = call ptr @llvm_basic_block_new(ptr noundef %41, ptr noundef @.str.16)
  store ptr %42, ptr %25, align 8
  %43 = load ptr, ptr %19, align 8
  %44 = call ptr @llvm_basic_block_new(ptr noundef %43, ptr noundef @.str.17)
  store ptr %44, ptr %26, align 8
  %45 = load ptr, ptr %19, align 8
  %46 = load ptr, ptr %20, align 8
  %47 = getelementptr inbounds %struct.BEValue, ptr %46, i32 0, i32 3
  %48 = load ptr, ptr %47, align 8
  %49 = call ptr @llvm_emit_expect_false_raw(ptr noundef %45, ptr noundef %48)
  %50 = load ptr, ptr %20, align 8
  %51 = getelementptr inbounds %struct.BEValue, ptr %50, i32 0, i32 3
  store ptr %49, ptr %51, align 8
  %52 = load ptr, ptr %19, align 8
  %53 = load ptr, ptr %20, align 8
  %54 = load ptr, ptr %25, align 8
  %55 = load ptr, ptr %26, align 8
  call void @llvm_emit_cond_br(ptr noundef %52, ptr noundef %53, ptr noundef %54, ptr noundef %55)
  %56 = load ptr, ptr %19, align 8
  %57 = load ptr, ptr %25, align 8
  call void @llvm_emit_block(ptr noundef %56, ptr noundef %57)
  br label %58

58:                                               ; preds = %40
  %59 = load ptr, ptr %19, align 8
  %60 = getelementptr inbounds %struct.GenContext_, ptr %59, i32 0, i32 12
  %61 = load ptr, ptr %60, align 8
  %62 = call ptr @expand_(ptr noundef %61, i64 noundef 8)
  store ptr %62, ptr %27, align 8
  %63 = load ptr, ptr %27, align 8
  %64 = load ptr, ptr %19, align 8
  %65 = getelementptr inbounds %struct.GenContext_, ptr %64, i32 0, i32 12
  store ptr %63, ptr %65, align 8
  %66 = load ptr, ptr %25, align 8
  %67 = load ptr, ptr %19, align 8
  %68 = getelementptr inbounds %struct.GenContext_, ptr %67, i32 0, i32 12
  %69 = load ptr, ptr %68, align 8
  %70 = load ptr, ptr %19, align 8
  %71 = getelementptr inbounds %struct.GenContext_, ptr %70, i32 0, i32 12
  %72 = load ptr, ptr %71, align 8
  store ptr %72, ptr %10, align 8
  %73 = load ptr, ptr %10, align 8
  %74 = icmp ne ptr %73, null
  br i1 %74, label %76, label %75

75:                                               ; preds = %58
  store i32 0, ptr %9, align 4
  br label %81

76:                                               ; preds = %58
  %77 = load ptr, ptr %10, align 8
  store ptr %77, ptr %11, align 8
  %78 = load ptr, ptr %11, align 8
  %79 = getelementptr inbounds %struct.VHeader_, ptr %78, i64 -1
  %80 = load i32, ptr %79, align 4
  store i32 %80, ptr %9, align 4
  br label %81

81:                                               ; preds = %76, %75
  %82 = load i32, ptr %9, align 4
  %83 = sub i32 %82, 1
  %84 = zext i32 %83 to i64
  %85 = getelementptr inbounds ptr, ptr %69, i64 %84
  store ptr %66, ptr %85, align 8
  br label %86

86:                                               ; preds = %81
  store ptr null, ptr %28, align 8
  %87 = load ptr, ptr %23, align 8
  %88 = icmp ne ptr %87, null
  br i1 %88, label %89, label %142

89:                                               ; preds = %86
  %90 = load ptr, ptr %23, align 8
  call void @llvm.memcpy.p0.p0.i64(ptr align 8 %29, ptr align 8 %90, i64 32, i1 false)
  %91 = load ptr, ptr %19, align 8
  %92 = getelementptr inbounds %struct.BEValue, ptr %29, i32 0, i32 2
  %93 = load ptr, ptr %92, align 8
  call void @llvm_emit_any_from_value(ptr noundef %91, ptr noundef %29, ptr noundef %93)
  br label %94

94:                                               ; preds = %89
  %95 = load ptr, ptr %28, align 8
  %96 = call ptr @expand_(ptr noundef %95, i64 noundef 32)
  store ptr %96, ptr %30, align 8
  %97 = load ptr, ptr %30, align 8
  store ptr %97, ptr %28, align 8
  %98 = load ptr, ptr %28, align 8
  %99 = load ptr, ptr %28, align 8
  store ptr %99, ptr %13, align 8
  %100 = load ptr, ptr %13, align 8
  %101 = icmp ne ptr %100, null
  br i1 %101, label %103, label %102

102:                                              ; preds = %94
  store i32 0, ptr %12, align 4
  br label %108

103:                                              ; preds = %94
  %104 = load ptr, ptr %13, align 8
  store ptr %104, ptr %14, align 8
  %105 = load ptr, ptr %14, align 8
  %106 = getelementptr inbounds %struct.VHeader_, ptr %105, i64 -1
  %107 = load i32, ptr %106, align 4
  store i32 %107, ptr %12, align 4
  br label %108

108:                                              ; preds = %103, %102
  %109 = load i32, ptr %12, align 4
  %110 = sub i32 %109, 1
  %111 = zext i32 %110 to i64
  %112 = getelementptr inbounds %struct.BEValue, ptr %98, i64 %111
  call void @llvm.memcpy.p0.p0.i64(ptr align 8 %112, ptr align 8 %29, i64 32, i1 false)
  br label %113

113:                                              ; preds = %108
  %114 = load ptr, ptr %24, align 8
  %115 = icmp ne ptr %114, null
  br i1 %115, label %116, label %141

116:                                              ; preds = %113
  %117 = load ptr, ptr %24, align 8
  call void @llvm.memcpy.p0.p0.i64(ptr align 8 %29, ptr align 8 %117, i64 32, i1 false)
  %118 = load ptr, ptr %19, align 8
  %119 = getelementptr inbounds %struct.BEValue, ptr %29, i32 0, i32 2
  %120 = load ptr, ptr %119, align 8
  call void @llvm_emit_any_from_value(ptr noundef %118, ptr noundef %29, ptr noundef %120)
  br label %121

121:                                              ; preds = %116
  %122 = load ptr, ptr %28, align 8
  %123 = call ptr @expand_(ptr noundef %122, i64 noundef 32)
  store ptr %123, ptr %31, align 8
  %124 = load ptr, ptr %31, align 8
  store ptr %124, ptr %28, align 8
  %125 = load ptr, ptr %28, align 8
  %126 = load ptr, ptr %28, align 8
  store ptr %126, ptr %16, align 8
  %127 = load ptr, ptr %16, align 8
  %128 = icmp ne ptr %127, null
  br i1 %128, label %130, label %129

129:                                              ; preds = %121
  store i32 0, ptr %15, align 4
  br label %135

130:                                              ; preds = %121
  %131 = load ptr, ptr %16, align 8
  store ptr %131, ptr %17, align 8
  %132 = load ptr, ptr %17, align 8
  %133 = getelementptr inbounds %struct.VHeader_, ptr %132, i64 -1
  %134 = load i32, ptr %133, align 4
  store i32 %134, ptr %15, align 4
  br label %135

135:                                              ; preds = %130, %129
  %136 = load i32, ptr %15, align 4
  %137 = sub i32 %136, 1
  %138 = zext i32 %137 to i64
  %139 = getelementptr inbounds %struct.BEValue, ptr %125, i64 %138
  call void @llvm.memcpy.p0.p0.i64(ptr align 8 %139, ptr align 8 %29, i64 32, i1 false)
  br label %140

140:                                              ; preds = %135
  br label %141

141:                                              ; preds = %140, %113
  br label %142

142:                                              ; preds = %141, %86
  %143 = load ptr, ptr %19, align 8
  %144 = load ptr, ptr %21, align 8
  %145 = load ptr, ptr %22, align 8
  %146 = load ptr, ptr %28, align 8
  %147 = getelementptr inbounds %union.SourceSpan, ptr %18, i32 0, i32 0
  %148 = load i64, ptr %147, align 8
  call void @llvm_emit_panic(ptr noundef %143, ptr noundef %144, i64 %148, ptr noundef %145, ptr noundef %146)
  %149 = load ptr, ptr %19, align 8
  %150 = load ptr, ptr %26, align 8
  call void @llvm_emit_block(ptr noundef %149, ptr noundef %150)
  br label %151

151:                                              ; preds = %142
  %152 = load ptr, ptr %19, align 8
  %153 = getelementptr inbounds %struct.GenContext_, ptr %152, i32 0, i32 36
  %154 = getelementptr inbounds %struct.DebugContext, ptr %153, i32 0, i32 1
  %155 = load ptr, ptr %154, align 8
  %156 = icmp ne ptr %155, null
  br i1 %156, label %157, label %161

157:                                              ; preds = %151
  %158 = load ptr, ptr %19, align 8
  %159 = getelementptr inbounds %union.SourceSpan, ptr %18, i32 0, i32 0
  %160 = load i64, ptr %159, align 8
  call void @llvm_emit_debug_location(ptr noundef %158, i64 %160)
  br label %161

161:                                              ; preds = %157, %151
  br label %162

162:                                              ; preds = %161, %39
  ret void
}