; Function Attrs: nounwind uwtable
define dso_local void @llvm_emit_panic_if_true(ptr noundef %0, ptr noundef %1, ptr noundef %2, i64 %3, ptr noundef %4, ptr noundef readonly %5, ptr noundef readonly %6) local_unnamed_addr #0 {
  %8 = alloca %struct.BEValue, align 8
  %9 = getelementptr inbounds i8, ptr %1, i64 16
  %10 = load ptr, ptr %9, align 8
  %11 = tail call i32 @LLVMIsConstant(ptr noundef %10) #9
  %.not = icmp eq i32 %11, 0
  br i1 %.not, label %12, label %99

12:                                               ; preds = %7
  %13 = tail call ptr @llvm_basic_block_new(ptr noundef %0, ptr noundef nonnull @.str.16) #9
  %14 = tail call ptr @llvm_basic_block_new(ptr noundef %0, ptr noundef nonnull @.str.17) #9
  %15 = load ptr, ptr %9, align 8
  %16 = tail call ptr @llvm_emit_expect_false_raw(ptr noundef %0, ptr noundef %15) #9
  store ptr %16, ptr %9, align 8
  tail call void @llvm_emit_cond_br(ptr noundef %0, ptr noundef nonnull %1, ptr noundef %13, ptr noundef %14) #9
  tail call void @llvm_emit_block(ptr noundef %0, ptr noundef %13) #9
  %17 = getelementptr inbounds i8, ptr %0, i64 96
  %18 = load ptr, ptr %17, align 8
  %.not.i = icmp eq ptr %18, null
  br i1 %.not.i, label %19, label %22

19:                                               ; preds = %12
  %20 = tail call ptr @calloc_arena(i64 noundef 72) #9
  %21 = getelementptr inbounds i8, ptr %20, i64 4
  store i32 8, ptr %21, align 4
  br label %24

22:                                               ; preds = %12
  %23 = getelementptr inbounds i8, ptr %18, i64 -8
  %.phi.trans.insert.i = getelementptr inbounds i8, ptr %18, i64 -4
  %.pre.i = load i32, ptr %.phi.trans.insert.i, align 4
  br label %24

24:                                               ; preds = %22, %19
  %25 = phi i32 [ %.pre.i, %22 ], [ 8, %19 ]
  %.0.i = phi ptr [ %23, %22 ], [ %20, %19 ]
  %26 = load i32, ptr %.0.i, align 4
  %27 = icmp eq i32 %26, %25
  br i1 %27, label %28, label %42

28:                                               ; preds = %24
  %29 = getelementptr inbounds i8, ptr %.0.i, i64 4
  %30 = shl i32 %25, 1
  %31 = zext i32 %30 to i64
  %32 = shl nuw nsw i64 %31, 3
  %33 = or disjoint i64 %32, 8
  %34 = tail call ptr @calloc_arena(i64 noundef %33) #9
  %35 = getelementptr inbounds i8, ptr %34, i64 4
  store i32 %30, ptr %35, align 4
  %36 = load i32, ptr %29, align 4
  %37 = zext i32 %36 to i64
  %38 = shl nuw nsw i64 %37, 3
  %39 = add nuw nsw i64 %38, 8
  tail call void @llvm.memcpy.p0.p0.i64(ptr noundef nonnull align 4 dereferenceable(1) %34, ptr noundef nonnull align 4 dereferenceable(1) %.0.i, i64 %39, i1 false)
  %40 = load i32, ptr %35, align 4
  %41 = shl i32 %40, 1
  store i32 %41, ptr %35, align 4
  %.pre18.i = load i32, ptr %34, align 4
  br label %42

42:                                               ; preds = %24, %28
  %43 = phi i32 [ %.pre18.i, %28 ], [ %26, %24 ]
  %.1.i = phi ptr [ %34, %28 ], [ %.0.i, %24 ]
  %44 = add i32 %43, 1
  store i32 %44, ptr %.1.i, align 4
  %45 = getelementptr inbounds i8, ptr %.1.i, i64 8
  store ptr %45, ptr %17, align 8
  %46 = load i32, ptr %.1.i, align 4
  %47 = add i32 %46, -1
  %48 = zext i32 %47 to i64
  %49 = getelementptr inbounds ptr, ptr %45, i64 %48
  store ptr %13, ptr %49, align 8
  %.not62 = icmp eq ptr %5, null
  br i1 %.not62, label %95, label %50

50:                                               ; preds = %42
  call void @llvm.memcpy.p0.p0.i64(ptr noundef nonnull align 8 dereferenceable(32) %8, ptr noundef nonnull align 8 dereferenceable(32) %5, i64 32, i1 false)
  %51 = getelementptr inbounds i8, ptr %8, i64 8
  %52 = load ptr, ptr %51, align 8
  call void @llvm_emit_any_from_value(ptr noundef nonnull %0, ptr noundef nonnull %8, ptr noundef %52) #9
  %53 = call ptr @calloc_arena(i64 noundef 264) #9
  %54 = getelementptr inbounds i8, ptr %53, i64 4
  store i32 8, ptr %54, align 4
  %55 = load i32, ptr %53, align 4
  %56 = icmp eq i32 %55, 8
  br i1 %56, label %57, label %66

57:                                               ; preds = %50
  %58 = call ptr @calloc_arena(i64 noundef 520) #9
  %59 = getelementptr inbounds i8, ptr %58, i64 4
  store i32 16, ptr %59, align 4
  %60 = load i32, ptr %54, align 4
  %61 = zext i32 %60 to i64
  %62 = shl nuw nsw i64 %61, 5
  %63 = or disjoint i64 %62, 8
  call void @llvm.memcpy.p0.p0.i64(ptr noundef nonnull align 4 dereferenceable(1) %58, ptr noundef nonnull align 4 dereferenceable(1) %53, i64 %63, i1 false)
  %64 = load i32, ptr %59, align 4
  %65 = shl i32 %64, 1
  store i32 %65, ptr %59, align 4
  %.pre18.i69 = load i32, ptr %58, align 4
  br label %66

66:                                               ; preds = %50, %57
  %67 = phi i32 [ %.pre18.i69, %57 ], [ %55, %50 ]
  %.1.i68 = phi ptr [ %58, %57 ], [ %53, %50 ]
  %68 = add i32 %67, 1
  store i32 %68, ptr %.1.i68, align 4
  %69 = getelementptr inbounds i8, ptr %.1.i68, i64 8
  %70 = zext i32 %67 to i64
  %71 = getelementptr inbounds %struct.BEValue, ptr %69, i64 %70
  call void @llvm.memcpy.p0.p0.i64(ptr noundef nonnull align 8 dereferenceable(32) %71, ptr noundef nonnull align 8 dereferenceable(32) %8, i64 32, i1 false)
  %.not64 = icmp eq ptr %6, null
  br i1 %.not64, label %95, label %72

72:                                               ; preds = %66
  call void @llvm.memcpy.p0.p0.i64(ptr noundef nonnull align 8 dereferenceable(32) %8, ptr noundef nonnull align 8 dereferenceable(32) %6, i64 32, i1 false)
  %73 = load ptr, ptr %51, align 8
  call void @llvm_emit_any_from_value(ptr noundef nonnull %0, ptr noundef nonnull %8, ptr noundef %73) #9
  %.phi.trans.insert.i71 = getelementptr inbounds i8, ptr %.1.i68, i64 4
  %.pre.i72 = load i32, ptr %.phi.trans.insert.i71, align 4
  %74 = load i32, ptr %.1.i68, align 4
  %75 = icmp eq i32 %74, %.pre.i72
  br i1 %75, label %76, label %89

76:                                               ; preds = %72
  %77 = shl i32 %.pre.i72, 1
  %78 = zext i32 %77 to i64
  %79 = shl nuw nsw i64 %78, 5
  %80 = or disjoint i64 %79, 8
  %81 = call ptr @calloc_arena(i64 noundef %80) #9
  %82 = getelementptr inbounds i8, ptr %81, i64 4
  store i32 %77, ptr %82, align 4
  %83 = load i32, ptr %.phi.trans.insert.i71, align 4
  %84 = zext i32 %83 to i64
  %85 = shl nuw nsw i64 %84, 5
  %86 = or disjoint i64 %85, 8
  call void @llvm.memcpy.p0.p0.i64(ptr noundef nonnull align 4 dereferenceable(1) %81, ptr noundef nonnull align 4 dereferenceable(1) %.1.i68, i64 %86, i1 false)
  %87 = load i32, ptr %82, align 4
  %88 = shl i32 %87, 1
  store i32 %88, ptr %82, align 4
  %.pre18.i75 = load i32, ptr %81, align 4
  br label %89

89:                                               ; preds = %72, %76
  %90 = phi i32 [ %.pre18.i75, %76 ], [ %74, %72 ]
  %.1.i74 = phi ptr [ %81, %76 ], [ %.1.i68, %72 ]
  %91 = add i32 %90, 1
  store i32 %91, ptr %.1.i74, align 4
  %92 = getelementptr inbounds i8, ptr %.1.i74, i64 8
  %93 = zext i32 %90 to i64
  %94 = getelementptr inbounds %struct.BEValue, ptr %92, i64 %93
  call void @llvm.memcpy.p0.p0.i64(ptr noundef nonnull align 8 dereferenceable(32) %94, ptr noundef nonnull align 8 dereferenceable(32) %8, i64 32, i1 false)
  br label %95

95:                                               ; preds = %66, %89, %42
  %.054 = phi ptr [ %92, %89 ], [ %69, %66 ], [ null, %42 ]
  call void @llvm_emit_panic(ptr noundef nonnull %0, ptr noundef %2, i64 %3, ptr noundef %4, ptr noundef %.054)
  call void @llvm_emit_block(ptr noundef nonnull %0, ptr noundef %14) #9
  %96 = getelementptr inbounds i8, ptr %0, i64 304
  %97 = load ptr, ptr %96, align 8
  %.not66 = icmp eq ptr %97, null
  br i1 %.not66, label %99, label %98

98:                                               ; preds = %95
  call void @llvm_emit_debug_location(ptr noundef nonnull %0, i64 %3) #9
  br label %99

99:                                               ; preds = %95, %98, %7
  ret void
}